libmd.so.1:CloseMetricsDevice
libmd.so.1:OpenMetricsDevice
libmd.so.1:OpenMetricsDeviceFromFile
libmd.so.1:SaveMetricsDeviceToFile
libmd.so.1:_Z16AddGlobalSymbolsPN24MetricsDiscoveryInternal10CSymbolSetE
libmd.so.1:_Z16CreateObjectTreePPN16MetricsDiscovery18IMetricsDevice_1_5E
libmd.so.1:_Z20SaveObjectTreeToFilePKcPN16MetricsDiscovery18IMetricsDevice_1_5E
libmd.so.1:_Z22CreateObjectTreeBDW_OAPN24MetricsDiscoveryInternal16CConcurrentGroupE
libmd.so.1:_Z22CreateObjectTreeBXT_OAPN24MetricsDiscoveryInternal16CConcurrentGroupE
libmd.so.1:_Z22CreateObjectTreeHSW_OAPN24MetricsDiscoveryInternal16CConcurrentGroupE
libmd.so.1:_Z24CreateObjectTreeFromFilePKcPPN16MetricsDiscovery18IMetricsDevice_1_5E
libmd.so.1:_Z26CreateObjectTreeKBL_GT2_OAPN24MetricsDiscoveryInternal16CConcurrentGroupE
libmd.so.1:_Z26CreateObjectTreeKBL_GT3_OAPN24MetricsDiscoveryInternal16CConcurrentGroupE
libmd.so.1:_Z26CreateObjectTreeSKL_GT2_OAPN24MetricsDiscoveryInternal16CConcurrentGroupE
libmd.so.1:_Z26CreateObjectTreeSKL_GT3_OAPN24MetricsDiscoveryInternal16CConcurrentGroupE
libmd.so.1:_Z26CreateObjectTreeSKL_GT4_OAPN24MetricsDiscoveryInternal16CConcurrentGroupE
libmd.so.1:_ZN16MetricsDiscovery11IMetric_1_09GetParamsEv
libmd.so.1:_ZN16MetricsDiscovery11IMetric_1_0D0Ev
libmd.so.1:_ZN16MetricsDiscovery11IMetric_1_0D1Ev
libmd.so.1:_ZN16MetricsDiscovery11IMetric_1_0D2Ev
libmd.so.1:_ZN16MetricsDiscovery13IEquation_1_018GetEquationElementEj
libmd.so.1:_ZN16MetricsDiscovery13IEquation_1_024GetEquationElementsCountEv
libmd.so.1:_ZN16MetricsDiscovery13IEquation_1_0D0Ev
libmd.so.1:_ZN16MetricsDiscovery13IEquation_1_0D1Ev
libmd.so.1:_ZN16MetricsDiscovery13IEquation_1_0D2Ev
libmd.so.1:_ZN16MetricsDiscovery13IOverride_1_211SetOverrideEPNS_22SSetOverrideParams_1_2Ej
libmd.so.1:_ZN16MetricsDiscovery13IOverride_1_29GetParamsEv
libmd.so.1:_ZN16MetricsDiscovery13IOverride_1_2D0Ev
libmd.so.1:_ZN16MetricsDiscovery13IOverride_1_2D1Ev
libmd.so.1:_ZN16MetricsDiscovery13IOverride_1_2D2Ev
libmd.so.1:_ZN16MetricsDiscovery14IMetricSet_1_010DeactivateEv
libmd.so.1:_ZN16MetricsDiscovery14IMetricSet_1_014GetInformationEj
libmd.so.1:_ZN16MetricsDiscovery14IMetricSet_1_015AddCustomMetricEPKcS2_S2_S2_S2_jjNS_17EMetricResultTypeES2_NS_11EMetricTypeEllNS_11EHwUnitTypeES2_S2_S2_S2_S2_S2_
libmd.so.1:_ZN16MetricsDiscovery14IMetricSet_1_025GetComplementaryMetricSetEj
libmd.so.1:_ZN16MetricsDiscovery14IMetricSet_1_08ActivateEv
libmd.so.1:_ZN16MetricsDiscovery14IMetricSet_1_09GetMetricEj
libmd.so.1:_ZN16MetricsDiscovery14IMetricSet_1_09GetParamsEv
libmd.so.1:_ZN16MetricsDiscovery14IMetricSet_1_0D0Ev
libmd.so.1:_ZN16MetricsDiscovery14IMetricSet_1_0D1Ev
libmd.so.1:_ZN16MetricsDiscovery14IMetricSet_1_0D2Ev
libmd.so.1:_ZN16MetricsDiscovery14IMetricSet_1_115SetApiFilteringEj
libmd.so.1:_ZN16MetricsDiscovery14IMetricSet_1_116CalculateMetricsEPKhjPNS_15STypedValue_1_0EjPjb
libmd.so.1:_ZN16MetricsDiscovery14IMetricSet_1_133CalculateIoMeasurementInformationEPNS_15STypedValue_1_0Ej
libmd.so.1:_ZN16MetricsDiscovery14IMetricSet_1_1D0Ev
libmd.so.1:_ZN16MetricsDiscovery14IMetricSet_1_1D1Ev
libmd.so.1:_ZN16MetricsDiscovery14IMetricSet_1_1D2Ev
libmd.so.1:_ZN16MetricsDiscovery14IMetricSet_1_49GetParamsEv
libmd.so.1:_ZN16MetricsDiscovery14IMetricSet_1_4D0Ev
libmd.so.1:_ZN16MetricsDiscovery14IMetricSet_1_4D1Ev
libmd.so.1:_ZN16MetricsDiscovery14IMetricSet_1_4D2Ev
libmd.so.1:_ZN16MetricsDiscovery14IMetricSet_1_516CalculateMetricsEPKhjPNS_15STypedValue_1_0EjPjS4_j
libmd.so.1:_ZN16MetricsDiscovery14IMetricSet_1_525GetComplementaryMetricSetEj
libmd.so.1:_ZN16MetricsDiscovery16IInformation_1_09GetParamsEv
libmd.so.1:_ZN16MetricsDiscovery16IInformation_1_0D0Ev
libmd.so.1:_ZN16MetricsDiscovery16IInformation_1_0D1Ev
libmd.so.1:_ZN16MetricsDiscovery16IInformation_1_0D2Ev
libmd.so.1:_ZN16MetricsDiscovery18IInternalMetricSet15AddCustomMetricEPNS_22SAddCustomMetricParamsE
libmd.so.1:_ZN16MetricsDiscovery18IInternalMetricSetD0Ev
libmd.so.1:_ZN16MetricsDiscovery18IInternalMetricSetD1Ev
libmd.so.1:_ZN16MetricsDiscovery18IInternalMetricSetD2Ev
libmd.so.1:_ZN16MetricsDiscovery18IMetricsDevice_1_012GetLastErrorEv
libmd.so.1:_ZN16MetricsDiscovery18IMetricsDevice_1_015GetGlobalSymbolEj
libmd.so.1:_ZN16MetricsDiscovery18IMetricsDevice_1_018GetConcurrentGroupEj
libmd.so.1:_ZN16MetricsDiscovery18IMetricsDevice_1_019GetGpuCpuTimestampsEPmS1_Pj
libmd.so.1:_ZN16MetricsDiscovery18IMetricsDevice_1_026GetGlobalSymbolValueByNameEPKc
libmd.so.1:_ZN16MetricsDiscovery18IMetricsDevice_1_09GetParamsEv
libmd.so.1:_ZN16MetricsDiscovery18IMetricsDevice_1_0D0Ev
libmd.so.1:_ZN16MetricsDiscovery18IMetricsDevice_1_0D1Ev
libmd.so.1:_ZN16MetricsDiscovery18IMetricsDevice_1_0D2Ev
libmd.so.1:_ZN16MetricsDiscovery18IMetricsDevice_1_118GetConcurrentGroupEj
libmd.so.1:_ZN16MetricsDiscovery18IMetricsDevice_1_211GetOverrideEj
libmd.so.1:_ZN16MetricsDiscovery18IMetricsDevice_1_217GetOverrideByNameEPKc
libmd.so.1:_ZN16MetricsDiscovery18IMetricsDevice_1_29GetParamsEv
libmd.so.1:_ZN16MetricsDiscovery18IMetricsDevice_1_518GetConcurrentGroupEj
libmd.so.1:_ZN16MetricsDiscovery20IConcurrentGroup_1_012GetMetricSetEj
libmd.so.1:_ZN16MetricsDiscovery20IConcurrentGroup_1_012OpenIoStreamEPNS_14IMetricSet_1_0EjPjS3_
libmd.so.1:_ZN16MetricsDiscovery20IConcurrentGroup_1_012ReadIoStreamEPjPcj
libmd.so.1:_ZN16MetricsDiscovery20IConcurrentGroup_1_013CloseIoStreamEv
libmd.so.1:_ZN16MetricsDiscovery20IConcurrentGroup_1_014WaitForReportsEj
libmd.so.1:_ZN16MetricsDiscovery20IConcurrentGroup_1_026GetIoGpuContextInformationEj
libmd.so.1:_ZN16MetricsDiscovery20IConcurrentGroup_1_027GetIoMeasurementInformationEj
libmd.so.1:_ZN16MetricsDiscovery20IConcurrentGroup_1_09GetParamsEv
libmd.so.1:_ZN16MetricsDiscovery20IConcurrentGroup_1_0D0Ev
libmd.so.1:_ZN16MetricsDiscovery20IConcurrentGroup_1_0D1Ev
libmd.so.1:_ZN16MetricsDiscovery20IConcurrentGroup_1_0D2Ev
libmd.so.1:_ZN16MetricsDiscovery20IConcurrentGroup_1_112GetMetricSetEj
libmd.so.1:_ZN16MetricsDiscovery20IConcurrentGroup_1_323SetIoStreamSamplingTypeENS_13ESamplingTypeE
libmd.so.1:_ZN16MetricsDiscovery20IConcurrentGroup_1_512GetMetricSetEj
libmd.so.1:_ZN16MetricsDiscovery24IInternalConcurrentGroup18AddCustomMetricSetEPNS_25SAddCustomMetricSetParamsEPNS_14IMetricSet_1_0Eb
libmd.so.1:_ZN16MetricsDiscovery24IInternalConcurrentGroupD0Ev
libmd.so.1:_ZN16MetricsDiscovery24IInternalConcurrentGroupD1Ev
libmd.so.1:_ZN16MetricsDiscovery24IInternalConcurrentGroupD2Ev
libmd.so.1:_ZN24MetricsDiscoveryInternal10CMetricSet10DeactivateEv
libmd.so.1:_ZN24MetricsDiscoveryInternal10CMetricSet13GetReportTypeEv
libmd.so.1:_ZN24MetricsDiscoveryInternal10CMetricSet14AddInformationEPKcS2_S2_S2_jN16MetricsDiscovery16EInformationTypeES2_S2_
libmd.so.1:_ZN24MetricsDiscoveryInternal10CMetricSet14AddInformationEPNS_12CInformationE
libmd.so.1:_ZN24MetricsDiscoveryInternal10CMetricSet14GetInformationEj
libmd.so.1:_ZN24MetricsDiscoveryInternal10CMetricSet14HasInformationEPKc
libmd.so.1:_ZN24MetricsDiscoveryInternal10CMetricSet15AddCustomMetricEPKcS2_S2_S2_S2_jjN16MetricsDiscovery17EMetricResultTypeES2_NS3_11EMetricTypeEllNS3_11EHwUnitTypeES2_S2_S2_S2_S2_S2_
libmd.so.1:_ZN24MetricsDiscoveryInternal10CMetricSet15AddCustomMetricEPN16MetricsDiscovery22SAddCustomMetricParamsE
libmd.so.1:_ZN24MetricsDiscoveryInternal10CMetricSet15SetApiFilteringEj
libmd.so.1:_ZN24MetricsDiscoveryInternal10CMetricSet16ActivateInternalEbb
libmd.so.1:_ZN24MetricsDiscoveryInternal10CMetricSet16CalculateMetricsEPKhjPN16MetricsDiscovery15STypedValue_1_0EjPjS5_j
libmd.so.1:_ZN24MetricsDiscoveryInternal10CMetricSet16CalculateMetricsEPKhjPN16MetricsDiscovery15STypedValue_1_0EjPjb
libmd.so.1:_ZN24MetricsDiscoveryInternal10CMetricSet16SetApiSpecificIdEN16MetricsDiscovery18SApiSpecificId_1_0E
libmd.so.1:_ZN24MetricsDiscoveryInternal10CMetricSet16SetApiSpecificIdEPKcjjjjjS2_jS2_j
libmd.so.1:_ZN24MetricsDiscoveryInternal10CMetricSet17GetPartialGroupIdEPcj
libmd.so.1:_ZN24MetricsDiscoveryInternal10CMetricSet18EnableApiFilteringEjb
libmd.so.1:_ZN24MetricsDiscoveryInternal10CMetricSet19AddStartRegisterSetEjjPKcN16MetricsDiscovery11EConfigTypeE
libmd.so.1:_ZN24MetricsDiscoveryInternal10CMetricSet19MetricGroupNameToIdEPKc
libmd.so.1:_ZN24MetricsDiscoveryInternal10CMetricSet20AreMetricParamsValidEPKcS2_S2_S2_N16MetricsDiscovery11EMetricTypeENS3_17EMetricResultTypeES2_NS3_11EHwUnitTypeES2_
libmd.so.1:_ZN24MetricsDiscoveryInternal10CMetricSet20GetMetricsCalculatorEv
libmd.so.1:_ZN24MetricsDiscoveryInternal10CMetricSet20InheritFromMetricSetEPS0_PKcb
libmd.so.1:_ZN24MetricsDiscoveryInternal10CMetricSet20IsMetricAlreadyAddedEPKc
libmd.so.1:_ZN24MetricsDiscoveryInternal10CMetricSet21AppendToConfigurationEPNS_6VectorIPN16MetricsDiscovery9SRegisterEEES6_S6_
libmd.so.1:_ZN24MetricsDiscoveryInternal10CMetricSet21GetStartConfigurationEPj
libmd.so.1:_ZN24MetricsDiscoveryInternal10CMetricSet21WriteCMetricSetToFileEP8_IO_FILE
libmd.so.1:_ZN24MetricsDiscoveryInternal10CMetricSet22AddStartConfigRegisterEjjN16MetricsDiscovery13ERegisterTypeE
libmd.so.1:_ZN24MetricsDiscoveryInternal10CMetricSet22RefreshConfigRegistersEv
libmd.so.1:_ZN24MetricsDiscoveryInternal10CMetricSet22SendStartConfigurationEb
libmd.so.1:_ZN24MetricsDiscoveryInternal10CMetricSet23CheckSendConfigRequiredEb
libmd.so.1:_ZN24MetricsDiscoveryInternal10CMetricSet23IsApiFilteringMaskValidEj
libmd.so.1:_ZN24MetricsDiscoveryInternal10CMetricSet23UseApiFilteredVariablesEb
libmd.so.1:_ZN24MetricsDiscoveryInternal10CMetricSet24GetStartRegSetHiPriorityEjPPNS_12CRegisterSetE
libmd.so.1:_ZN24MetricsDiscoveryInternal10CMetricSet25AddComplementaryMetricSetEPKc
libmd.so.1:_ZN24MetricsDiscoveryInternal10CMetricSet25CheckNoaProgrammingExistsEPNS_6VectorIPN16MetricsDiscovery9SRegisterEEE
libmd.so.1:_ZN24MetricsDiscoveryInternal10CMetricSet25GetComplementaryMetricSetEj
libmd.so.1:_ZN24MetricsDiscoveryInternal10CMetricSet26AddComplementaryMetricSetsEPKc
libmd.so.1:_ZN24MetricsDiscoveryInternal10CMetricSet28InitializeCalculationContextERNS_19SCalculationContextEPNS_19CCalculationManagerEN16MetricsDiscovery16EMeasurementTypeEPNS5_15STypedValue_1_0ES8_PKhjb
libmd.so.1:_ZN24MetricsDiscoveryInternal10CMetricSet28InitializeCalculationManagerEN16MetricsDiscovery16EMeasurementTypeEPPNS_19CCalculationManagerEb
libmd.so.1:_ZN24MetricsDiscoveryInternal10CMetricSet30ValidateCalculateMetricsParamsEjjjjj
libmd.so.1:_ZN24MetricsDiscoveryInternal10CMetricSet32ClearCachedMetricsAndInformationEv
libmd.so.1:_ZN24MetricsDiscoveryInternal10CMetricSet33CalculateIoMeasurementInformationEPN16MetricsDiscovery15STypedValue_1_0Ej
libmd.so.1:_ZN24MetricsDiscoveryInternal10CMetricSet34RefreshCachedMetricsAndInformationEv
libmd.so.1:_ZN24MetricsDiscoveryInternal10CMetricSet8ActivateEv
libmd.so.1:_ZN24MetricsDiscoveryInternal10CMetricSet8IsCustomEv
libmd.so.1:_ZN24MetricsDiscoveryInternal10CMetricSet9AddMetricEPKcS2_S2_S2_jjjN16MetricsDiscovery11EMetricTypeENS3_17EMetricResultTypeES2_llNS3_11EHwUnitTypeES2_S2_S2_b
libmd.so.1:_ZN24MetricsDiscoveryInternal10CMetricSet9AddMetricEPNS_7CMetricE
libmd.so.1:_ZN24MetricsDiscoveryInternal10CMetricSet9GetMetricEj
libmd.so.1:_ZN24MetricsDiscoveryInternal10CMetricSet9GetParamsEv
libmd.so.1:_ZN24MetricsDiscoveryInternal10CMetricSetC1EPNS_14CMetricsDeviceEPNS_16CConcurrentGroupEPKcS6_jjjjNS_11EReportTypeEjjb
libmd.so.1:_ZN24MetricsDiscoveryInternal10CMetricSetC2EPNS_14CMetricsDeviceEPNS_16CConcurrentGroupEPKcS6_jjjjNS_11EReportTypeEjjb
libmd.so.1:_ZN24MetricsDiscoveryInternal10CMetricSetD0Ev
libmd.so.1:_ZN24MetricsDiscoveryInternal10CMetricSetD1Ev
libmd.so.1:_ZN24MetricsDiscoveryInternal10CMetricSetD2Ev
libmd.so.1:_ZN24MetricsDiscoveryInternal10CSemaphore4WaitEv
libmd.so.1:_ZN24MetricsDiscoveryInternal10CSemaphore6NotifyEv
libmd.so.1:_ZN24MetricsDiscoveryInternal10CSemaphore7TryWaitEv
libmd.so.1:_ZN24MetricsDiscoveryInternal10CSemaphore7WaitForEm
libmd.so.1:_ZN24MetricsDiscoveryInternal10CSemaphore8GetValueEv
libmd.so.1:_ZN24MetricsDiscoveryInternal10CSemaphoreC1Ev
libmd.so.1:_ZN24MetricsDiscoveryInternal10CSemaphoreC2Ev
libmd.so.1:_ZN24MetricsDiscoveryInternal10CSymbolSet13AddSymbolBOOLEPKcbNS_11ESymbolTypeE
libmd.so.1:_ZN24MetricsDiscoveryInternal10CSymbolSet14AddSymbolFLOATEPKcfNS_11ESymbolTypeE
libmd.so.1:_ZN24MetricsDiscoveryInternal10CSymbolSet14GetSymbolCountEv
libmd.so.1:_ZN24MetricsDiscoveryInternal10CSymbolSet14IsPavpDisabledEj
libmd.so.1:_ZN24MetricsDiscoveryInternal10CSymbolSet14RedetectSymbolEPKc
libmd.so.1:_ZN24MetricsDiscoveryInternal10CSymbolSet15AddSymbolUINT32EPKcjNS_11ESymbolTypeE
libmd.so.1:_ZN24MetricsDiscoveryInternal10CSymbolSet15AddSymbolUINT64EPKcmNS_11ESymbolTypeE
libmd.so.1:_ZN24MetricsDiscoveryInternal10CSymbolSet16AddSymbolCSTRINGEPKcPcNS_11ESymbolTypeE
libmd.so.1:_ZN24MetricsDiscoveryInternal10CSymbolSet17DetectSymbolValueEPKcPN16MetricsDiscovery15STypedValue_1_0E
libmd.so.1:_ZN24MetricsDiscoveryInternal10CSymbolSet20GetSymbolValueByNameEPKc
libmd.so.1:_ZN24MetricsDiscoveryInternal10CSymbolSet20IsSymbolAlreadyAddedEPKc
libmd.so.1:_ZN24MetricsDiscoveryInternal10CSymbolSet20WriteSymbolSetToFileEP8_IO_FILE
libmd.so.1:_ZN24MetricsDiscoveryInternal10CSymbolSet9AddSymbolEPKcN16MetricsDiscovery15STypedValue_1_0ENS_11ESymbolTypeE
libmd.so.1:_ZN24MetricsDiscoveryInternal10CSymbolSet9GetSymbolEj
libmd.so.1:_ZN24MetricsDiscoveryInternal10CSymbolSetC1Ev
libmd.so.1:_ZN24MetricsDiscoveryInternal10CSymbolSetC2Ev
libmd.so.1:_ZN24MetricsDiscoveryInternal10CSymbolSetD1Ev
libmd.so.1:_ZN24MetricsDiscoveryInternal10CSymbolSetD2Ev
libmd.so.1:_ZN24MetricsDiscoveryInternal11GetFileSizeEP8_IO_FILE
libmd.so.1:_ZN24MetricsDiscoveryInternal12CInformation19SetInformationValueEjNS_13EEquationTypeE
libmd.so.1:_ZN24MetricsDiscoveryInternal12CInformation19SetOverflowFunctionEN16MetricsDiscovery18SDeltaFunction_1_0E
libmd.so.1:_ZN24MetricsDiscoveryInternal12CInformation19SetOverflowFunctionEPKc
libmd.so.1:_ZN24MetricsDiscoveryInternal12CInformation23SetAvailabilityEquationEPKc
libmd.so.1:_ZN24MetricsDiscoveryInternal12CInformation23WriteCInformationToFileEP8_IO_FILE
libmd.so.1:_ZN24MetricsDiscoveryInternal12CInformation26SetDeltaReportReadEquationEPKc
libmd.so.1:_ZN24MetricsDiscoveryInternal12CInformation29SetSnapshotReportReadEquationEPKc
libmd.so.1:_ZN24MetricsDiscoveryInternal12CInformation9GetParamsEv
libmd.so.1:_ZN24MetricsDiscoveryInternal12CInformationC1EPNS_14CMetricsDeviceEjPKcS4_S4_S4_jN16MetricsDiscovery16EInformationTypeES4_
libmd.so.1:_ZN24MetricsDiscoveryInternal12CInformationC1ERKS0_
libmd.so.1:_ZN24MetricsDiscoveryInternal12CInformationC2EPNS_14CMetricsDeviceEjPKcS4_S4_S4_jN16MetricsDiscovery16EInformationTypeES4_
libmd.so.1:_ZN24MetricsDiscoveryInternal12CInformationC2ERKS0_
libmd.so.1:_ZN24MetricsDiscoveryInternal12CInformationD0Ev
libmd.so.1:_ZN24MetricsDiscoveryInternal12CInformationD1Ev
libmd.so.1:_ZN24MetricsDiscoveryInternal12CInformationD2Ev
libmd.so.1:_ZN24MetricsDiscoveryInternal12CRegisterSet11IsAvailableEv
libmd.so.1:_ZN24MetricsDiscoveryInternal12CRegisterSet12RegsToVectorEPNS_6VectorIPN16MetricsDiscovery9SRegisterEEE
libmd.so.1:_ZN24MetricsDiscoveryInternal12CRegisterSet17AddConfigRegisterEjjN16MetricsDiscovery13ERegisterTypeE
libmd.so.1:_ZN24MetricsDiscoveryInternal12CRegisterSet23SetAvailabilityEquationEPKc
libmd.so.1:_ZN24MetricsDiscoveryInternal12CRegisterSet23WriteCRegisterSetToFileEP8_IO_FILE
libmd.so.1:_ZN24MetricsDiscoveryInternal12CRegisterSet9GetParamsEv
libmd.so.1:_ZN24MetricsDiscoveryInternal12CRegisterSetC1EPNS_14CMetricsDeviceEjjN16MetricsDiscovery11EConfigTypeE
libmd.so.1:_ZN24MetricsDiscoveryInternal12CRegisterSetC2EPNS_14CMetricsDeviceEjjN16MetricsDiscovery11EConfigTypeE
libmd.so.1:_ZN24MetricsDiscoveryInternal12CRegisterSetD0Ev
libmd.so.1:_ZN24MetricsDiscoveryInternal12CRegisterSetD1Ev
libmd.so.1:_ZN24MetricsDiscoveryInternal12CRegisterSetD2Ev
libmd.so.1:_ZN24MetricsDiscoveryInternal12GetDriverIfcEv
libmd.so.1:_ZN24MetricsDiscoveryInternal14CMetricsDevice10SaveToFileEPKc
libmd.so.1:_ZN24MetricsDiscoveryInternal14CMetricsDevice11AddOverrideENS_13EOverrideTypeE
libmd.so.1:_ZN24MetricsDiscoveryInternal14CMetricsDevice11GetOverrideEj
libmd.so.1:_ZN24MetricsDiscoveryInternal14CMetricsDevice12AddOverridesEv
libmd.so.1:_ZN24MetricsDiscoveryInternal14CMetricsDevice12GetLastErrorEv
libmd.so.1:_ZN24MetricsDiscoveryInternal14CMetricsDevice12GetSymbolSetEv
libmd.so.1:_ZN24MetricsDiscoveryInternal14CMetricsDevice12OpenFromFileEPKcb
libmd.so.1:_ZN24MetricsDiscoveryInternal14CMetricsDevice14IsPavpDisabledEj
libmd.so.1:_ZN24MetricsDiscoveryInternal14CMetricsDevice15GetGlobalSymbolEj
libmd.so.1:_ZN24MetricsDiscoveryInternal14CMetricsDevice15GetPlatformTypeEv
libmd.so.1:_ZN24MetricsDiscoveryInternal14CMetricsDevice16IsOpenedFromFileEv
libmd.so.1:_ZN24MetricsDiscoveryInternal14CMetricsDevice16IsPlatformTypeOfEjj
libmd.so.1:_ZN24MetricsDiscoveryInternal14CMetricsDevice17GetOverrideByNameEPKc
libmd.so.1:_ZN24MetricsDiscoveryInternal14CMetricsDevice18AddConcurrentGroupEPKcS2_j
libmd.so.1:_ZN24MetricsDiscoveryInternal14CMetricsDevice18GetConcurrentGroupEj
libmd.so.1:_ZN24MetricsDiscoveryInternal14CMetricsDevice18GetDriverInterfaceEv
libmd.so.1:_ZN24MetricsDiscoveryInternal14CMetricsDevice19GetGpuCpuTimestampsEPmS1_Pj
libmd.so.1:_ZN24MetricsDiscoveryInternal14CMetricsDevice24GetConcurrentGroupByNameEPKc
libmd.so.1:_ZN24MetricsDiscoveryInternal14CMetricsDevice25ReadMetricsFromFileBufferEPPhPNS_10CMetricSetEb
libmd.so.1:_ZN24MetricsDiscoveryInternal14CMetricsDevice26GetGlobalSymbolValueByNameEPKc
libmd.so.1:_ZN24MetricsDiscoveryInternal14CMetricsDevice26IsAvailabilityEquationTrueEPKc
libmd.so.1:_ZN24MetricsDiscoveryInternal14CMetricsDevice27ReadRegistersFromFileBufferEPPhPNS_10CMetricSetE
libmd.so.1:_ZN24MetricsDiscoveryInternal14CMetricsDevice28ReadMetricSetsFromFileBufferEPPhPNS_16CConcurrentGroupEbPN16MetricsDiscovery24SMetricsDeviceParams_1_011SApiVersionE
libmd.so.1:_ZN24MetricsDiscoveryInternal14CMetricsDevice29ReadInformationFromFileBufferEPPhPNS_10CMetricSetE
libmd.so.1:_ZN24MetricsDiscoveryInternal14CMetricsDevice30IsMetricsFileInPlainTextFormatEP8_IO_FILE
libmd.so.1:_ZN24MetricsDiscoveryInternal14CMetricsDevice31ReadGlobalSymbolsFromFileBufferEPPh
libmd.so.1:_ZN24MetricsDiscoveryInternal14CMetricsDevice34ReadConcurrentGroupsFromFileBufferEPPhbPN16MetricsDiscovery24SMetricsDeviceParams_1_011SApiVersionE
libmd.so.1:_ZN24MetricsDiscoveryInternal14CMetricsDevice9GetParamsEv
libmd.so.1:_ZN24MetricsDiscoveryInternal14CMetricsDeviceC1Ev
libmd.so.1:_ZN24MetricsDiscoveryInternal14CMetricsDeviceC2Ev
libmd.so.1:_ZN24MetricsDiscoveryInternal14CMetricsDeviceD0Ev
libmd.so.1:_ZN24MetricsDiscoveryInternal14CMetricsDeviceD1Ev
libmd.so.1:_ZN24MetricsDiscoveryInternal14CMetricsDeviceD2Ev
libmd.so.1:_ZN24MetricsDiscoveryInternal15COverrideCommon17GetParamsInternalEv
libmd.so.1:_ZN24MetricsDiscoveryInternal15COverrideCommonC1Ev
libmd.so.1:_ZN24MetricsDiscoveryInternal15COverrideCommonC2Ev
libmd.so.1:_ZN24MetricsDiscoveryInternal16CConcurrentGroup12AddMetricSetEPKcS2_jjjjNS_11EReportTypeEjjb
libmd.so.1:_ZN24MetricsDiscoveryInternal16CConcurrentGroup12GetMetricSetEj
libmd.so.1:_ZN24MetricsDiscoveryInternal16CConcurrentGroup17GetCustomSetCountEv
libmd.so.1:_ZN24MetricsDiscoveryInternal16CConcurrentGroup17MatchingSetExistsEPKcjj
libmd.so.1:_ZN24MetricsDiscoveryInternal16CConcurrentGroup18AddCustomMetricSetEPN16MetricsDiscovery25SAddCustomMetricSetParamsEPNS1_14IMetricSet_1_0Eb
libmd.so.1:_ZN24MetricsDiscoveryInternal16CConcurrentGroup18AddCustomMetricSetEPNS_10CMetricSetEPKcS4_S4_jjjjjjS4_N16MetricsDiscovery18SApiSpecificId_1_0EPNS5_12SRegisterSetEjb
libmd.so.1:_ZN24MetricsDiscoveryInternal16CConcurrentGroup18GetMetricSetByNameEPKc
libmd.so.1:_ZN24MetricsDiscoveryInternal16CConcurrentGroup23AreMetricSetParamsValidEPKcS2_jjPN16MetricsDiscovery12SRegisterSetEj
libmd.so.1:_ZN24MetricsDiscoveryInternal16CConcurrentGroup27WriteCConcurrentGroupToFileEP8_IO_FILE
libmd.so.1:_ZN24MetricsDiscoveryInternal16CConcurrentGroup28FindSameMetricSetForPlatformEPNS_10CMetricSetEj
libmd.so.1:_ZN24MetricsDiscoveryInternal16CConcurrentGroup4LockEv
libmd.so.1:_ZN24MetricsDiscoveryInternal16CConcurrentGroup6UnlockEv
libmd.so.1:_ZN24MetricsDiscoveryInternal16CConcurrentGroup9GetParamsEv
libmd.so.1:_ZN24MetricsDiscoveryInternal16CConcurrentGroupC1EPNS_14CMetricsDeviceEPKcS4_j
libmd.so.1:_ZN24MetricsDiscoveryInternal16CConcurrentGroupC2EPNS_14CMetricsDeviceEPKcS4_j
libmd.so.1:_ZN24MetricsDiscoveryInternal16CConcurrentGroupD0Ev
libmd.so.1:_ZN24MetricsDiscoveryInternal16CConcurrentGroupD1Ev
libmd.so.1:_ZN24MetricsDiscoveryInternal16CConcurrentGroupD2Ev
libmd.so.1:_ZN24MetricsDiscoveryInternal16CDriverInterface11GetInstanceEv
libmd.so.1:_ZN24MetricsDiscoveryInternal16DestroyDriverIfcEv
libmd.so.1:_ZN24MetricsDiscoveryInternal16GetCopiedCStringEPKc
libmd.so.1:_ZN24MetricsDiscoveryInternal18CMetricsCalculator10SaveReportEPKh
libmd.so.1:_ZN24MetricsDiscoveryInternal18CMetricsCalculator11CastToFloatERKN16MetricsDiscovery15STypedValue_1_0E
libmd.so.1:_ZN24MetricsDiscoveryInternal18CMetricsCalculator12CastToUInt64ERKN16MetricsDiscovery15STypedValue_1_0E
libmd.so.1:_ZN24MetricsDiscoveryInternal18CMetricsCalculator12ReadBitfieldEPKhjj
libmd.so.1:_ZN24MetricsDiscoveryInternal18CMetricsCalculator14GetSavedReportEv
libmd.so.1:_ZN24MetricsDiscoveryInternal18CMetricsCalculator15ReadInformationEPKhPN16MetricsDiscovery15STypedValue_1_0EPNS3_14IMetricSet_1_1E
libmd.so.1:_ZN24MetricsDiscoveryInternal18CMetricsCalculator16NormalizeMetricsEPN16MetricsDiscovery15STypedValue_1_0ES3_PNS1_14IMetricSet_1_1E
libmd.so.1:_ZN24MetricsDiscoveryInternal18CMetricsCalculator18CalculateMaxValuesEPN16MetricsDiscovery15STypedValue_1_0ES3_S3_PNS1_14IMetricSet_1_1E
libmd.so.1:_ZN24MetricsDiscoveryInternal18CMetricsCalculator18DiscardSavedReportEv
libmd.so.1:_ZN24MetricsDiscoveryInternal18CMetricsCalculator18SavedReportPresentEv
libmd.so.1:_ZN24MetricsDiscoveryInternal18CMetricsCalculator20GetGlobalSymbolValueEPKc
libmd.so.1:_ZN24MetricsDiscoveryInternal18CMetricsCalculator21CalculateReadEquationEPN16MetricsDiscovery13IEquation_1_0EPKh
libmd.so.1:_ZN24MetricsDiscoveryInternal18CMetricsCalculator21ReadSingleInformationEPKhPN16MetricsDiscovery16IInformation_1_0EjPNS3_15STypedValue_1_0E
libmd.so.1:_ZN24MetricsDiscoveryInternal18CMetricsCalculator22CalculateDeltaFunctionEN16MetricsDiscovery18SDeltaFunction_1_0ERKNS1_15STypedValue_1_0ES5_
libmd.so.1:_ZN24MetricsDiscoveryInternal18CMetricsCalculator23ReadMetricsFromIoReportEPKhS2_PN16MetricsDiscovery15STypedValue_1_0EPNS3_14IMetricSet_1_1E
libmd.so.1:_ZN24MetricsDiscoveryInternal18CMetricsCalculator26ReadMetricsFromQueryReportEPKhPN16MetricsDiscovery15STypedValue_1_0EPNS3_14IMetricSet_1_1E
libmd.so.1:_ZN24MetricsDiscoveryInternal18CMetricsCalculator28ReadIoMeasurementInformationEPN16MetricsDiscovery20IConcurrentGroup_1_1EPNS1_15STypedValue_1_0E
libmd.so.1:_ZN24MetricsDiscoveryInternal18CMetricsCalculator29CalculateReadEquationAndDeltaEPN16MetricsDiscovery13IEquation_1_0ENS1_18SDeltaFunction_1_0EPKhS6_
libmd.so.1:_ZN24MetricsDiscoveryInternal18CMetricsCalculator30CalculateEquationElemOperationEN16MetricsDiscovery18EEquationOperationERKNS1_15STypedValue_1_0ES5_
libmd.so.1:_ZN24MetricsDiscoveryInternal18CMetricsCalculator35CalculateLocalNormalizationEquationEPN16MetricsDiscovery13IEquation_1_0EPNS1_15STypedValue_1_0ES5_PNS1_14IMetricSet_1_1Ej
libmd.so.1:_ZN24MetricsDiscoveryInternal18CMetricsCalculator5ResetEj
libmd.so.1:_ZN24MetricsDiscoveryInternal18CMetricsCalculatorC1EPN16MetricsDiscovery18IMetricsDevice_1_1E
libmd.so.1:_ZN24MetricsDiscoveryInternal18CMetricsCalculatorC2EPN16MetricsDiscovery18IMetricsDevice_1_1E
libmd.so.1:_ZN24MetricsDiscoveryInternal18CMetricsCalculatorD1Ev
libmd.so.1:_ZN24MetricsDiscoveryInternal18CMetricsCalculatorD2Ev
libmd.so.1:_ZN24MetricsDiscoveryInternal18COAConcurrentGroup12OpenIoStreamEPN16MetricsDiscovery14IMetricSet_1_0EjPjS4_
libmd.so.1:_ZN24MetricsDiscoveryInternal18COAConcurrentGroup12ReadIoStreamEPjPcj
libmd.so.1:_ZN24MetricsDiscoveryInternal18COAConcurrentGroup13CloseIoStreamEv
libmd.so.1:_ZN24MetricsDiscoveryInternal18COAConcurrentGroup14WaitForReportsEj
libmd.so.1:_ZN24MetricsDiscoveryInternal18COAConcurrentGroup17TryReadGpuCtxTagsEv
libmd.so.1:_ZN24MetricsDiscoveryInternal18COAConcurrentGroup18AddCustomMetricSetEPN16MetricsDiscovery25SAddCustomMetricSetParamsEPNS1_14IMetricSet_1_0Eb
libmd.so.1:_ZN24MetricsDiscoveryInternal18COAConcurrentGroup20ReadGpuContextIdTagsEv
libmd.so.1:_ZN24MetricsDiscoveryInternal18COAConcurrentGroup21ProcessGpuContextTagsEPNS_11SContextTagEj
libmd.so.1:_ZN24MetricsDiscoveryInternal18COAConcurrentGroup23SetIoStreamSamplingTypeEN16MetricsDiscovery13ESamplingTypeE
libmd.so.1:_ZN24MetricsDiscoveryInternal18COAConcurrentGroup26AddIoGpuContextInformationEPKcS2_S2_S2_N16MetricsDiscovery16EInformationTypeES2_
libmd.so.1:_ZN24MetricsDiscoveryInternal18COAConcurrentGroup26GetIoGpuContextInformationEj
libmd.so.1:_ZN24MetricsDiscoveryInternal18COAConcurrentGroup27AddIoMeasurementInformationEPKcS2_S2_S2_N16MetricsDiscovery16EInformationTypeES2_
libmd.so.1:_ZN24MetricsDiscoveryInternal18COAConcurrentGroup27GetIoMeasurementInformationEj
libmd.so.1:_ZN24MetricsDiscoveryInternal18COAConcurrentGroup30AddIoMeasurementInfoPredefinedEv
libmd.so.1:_ZN24MetricsDiscoveryInternal18COAConcurrentGroup30SetIoMeasurementInfoPredefinedENS_22EIoMeasurementInfoTypeEjPj
libmd.so.1:_ZN24MetricsDiscoveryInternal18COAConcurrentGroupC1EPNS_14CMetricsDeviceEPKcS4_j
libmd.so.1:_ZN24MetricsDiscoveryInternal18COAConcurrentGroupC2EPNS_14CMetricsDeviceEPKcS4_j
libmd.so.1:_ZN24MetricsDiscoveryInternal18COAConcurrentGroupD0Ev
libmd.so.1:_ZN24MetricsDiscoveryInternal18COAConcurrentGroupD1Ev
libmd.so.1:_ZN24MetricsDiscoveryInternal18COAConcurrentGroupD2Ev
libmd.so.1:_ZN24MetricsDiscoveryInternal18WriteCStringToFileEPKcP8_IO_FILE
libmd.so.1:_ZN24MetricsDiscoveryInternal21GetOpenCloseSemaphoreEPPv
libmd.so.1:_ZN24MetricsDiscoveryInternal22WriteTTypedValueToFileEPN16MetricsDiscovery15STypedValue_1_0EP8_IO_FILE
libmd.so.1:_ZN24MetricsDiscoveryInternal23CPerfMonConcurrentGroup12OpenIoStreamEPN16MetricsDiscovery14IMetricSet_1_0EjPjS4_
libmd.so.1:_ZN24MetricsDiscoveryInternal23CPerfMonConcurrentGroup12ReadIoStreamEPjPcj
libmd.so.1:_ZN24MetricsDiscoveryInternal23CPerfMonConcurrentGroup13CloseIoStreamEv
libmd.so.1:_ZN24MetricsDiscoveryInternal23CPerfMonConcurrentGroup14WaitForReportsEj
libmd.so.1:_ZN24MetricsDiscoveryInternal23CPerfMonConcurrentGroupC1EPNS_14CMetricsDeviceEPKcS4_j
libmd.so.1:_ZN24MetricsDiscoveryInternal23CPerfMonConcurrentGroupC2EPNS_14CMetricsDeviceEPKcS4_j
libmd.so.1:_ZN24MetricsDiscoveryInternal23ReadInt64FromFileBufferEPPh
libmd.so.1:_ZN24MetricsDiscoveryInternal24CEquationElementInternalC1ERKS0_
libmd.so.1:_ZN24MetricsDiscoveryInternal24CEquationElementInternalC1Ev
libmd.so.1:_ZN24MetricsDiscoveryInternal24CEquationElementInternalC2ERKS0_
libmd.so.1:_ZN24MetricsDiscoveryInternal24CEquationElementInternalC2Ev
libmd.so.1:_ZN24MetricsDiscoveryInternal24CEquationElementInternalaSERKS0_
libmd.so.1:_ZN24MetricsDiscoveryInternal24ReadUInt32FromFileBufferEPPh
libmd.so.1:_ZN24MetricsDiscoveryInternal25CDriverInterfaceLinuxPerf11GetDeviceIdEPi
libmd.so.1:_ZN24MetricsDiscoveryInternal25CDriverInterfaceLinuxPerf12OpenIntelDrmEv
libmd.so.1:_ZN24MetricsDiscoveryInternal25CDriverInterfaceLinuxPerf12OpenIoStreamENS_11EStreamTypeEPNS_10CMetricSetEPKcjPjS6_PPv
libmd.so.1:_ZN24MetricsDiscoveryInternal25CDriverInterfaceLinuxPerf12ReadIoStreamENS_11EStreamTypeEPN16MetricsDiscovery14IMetricSet_1_0EPcPjjS6_P37GTDIReadCounterStreamExceptionsStruct
libmd.so.1:_ZN24MetricsDiscoveryInternal25CDriverInterfaceLinuxPerf13AddPerfConfigEPPN16MetricsDiscovery9SRegisterEjPKcPi
libmd.so.1:_ZN24MetricsDiscoveryInternal25CDriverInterfaceLinuxPerf13CloseIntelDrmEi
libmd.so.1:_ZN24MetricsDiscoveryInternal25CDriverInterfaceLinuxPerf13CloseIoStreamENS_11EStreamTypeEPPvPKcPNS_10CMetricSetE
libmd.so.1:_ZN24MetricsDiscoveryInternal25CDriverInterfaceLinuxPerf13CreateContextEv
libmd.so.1:_ZN24MetricsDiscoveryInternal25CDriverInterfaceLinuxPerf13DeleteContextEv
libmd.so.1:_ZN24MetricsDiscoveryInternal25CDriverInterfaceLinuxPerf13GetDeviceNameEv
libmd.so.1:_ZN24MetricsDiscoveryInternal25CDriverInterfaceLinuxPerf13ReadSysFsFileEPKcPm
libmd.so.1:_ZN24MetricsDiscoveryInternal25CDriverInterfaceLinuxPerf13SemaphoreWaitEjPv
libmd.so.1:_ZN24MetricsDiscoveryInternal25CDriverInterfaceLinuxPerf14OpenPerfStreamEjjj
libmd.so.1:_ZN24MetricsDiscoveryInternal25CDriverInterfaceLinuxPerf14ReadPerfStreamEjjPcPjPb
libmd.so.1:_ZN24MetricsDiscoveryInternal25CDriverInterfaceLinuxPerf14WriteSysFsFileEPKcm
libmd.so.1:_ZN24MetricsDiscoveryInternal25CDriverInterfaceLinuxPerf15ClosePerfStreamEv
libmd.so.1:_ZN24MetricsDiscoveryInternal25CDriverInterfaceLinuxPerf15SemaphoreCreateEPKcPPv
libmd.so.1:_ZN24MetricsDiscoveryInternal25CDriverInterfaceLinuxPerf16GetDrmCardNumberEi
libmd.so.1:_ZN24MetricsDiscoveryInternal25CDriverInterfaceLinuxPerf16GetNsTimerPeriodEj
libmd.so.1:_ZN24MetricsDiscoveryInternal25CDriverInterfaceLinuxPerf16RemovePerfConfigEi
libmd.so.1:_ZN24MetricsDiscoveryInternal25CDriverInterfaceLinuxPerf16SemaphoreReleaseEPPv
libmd.so.1:_ZN24MetricsDiscoveryInternal25CDriverInterfaceLinuxPerf16SendPmRegsConfigEPPN16MetricsDiscovery9SRegisterEjj
libmd.so.1:_ZN24MetricsDiscoveryInternal25CDriverInterfaceLinuxPerf16SetQueryOverrideENS_13EOverrideTypeEN16MetricsDiscovery13EPlatformTypeEjPKNS2_27SSetQueryOverrideParams_1_2E
libmd.so.1:_ZN24MetricsDiscoveryInternal25CDriverInterfaceLinuxPerf17GetCpuTimestampNsEPm
libmd.so.1:_ZN24MetricsDiscoveryInternal25CDriverInterfaceLinuxPerf17GetGpuTimestampNsEPm
libmd.so.1:_ZN24MetricsDiscoveryInternal25CDriverInterfaceLinuxPerf17GetMesaDeviceInfoEPPK15gen_device_info
libmd.so.1:_ZN24MetricsDiscoveryInternal25CDriverInterfaceLinuxPerf17GetPerfReportTypeENS_11EReportTypeE
libmd.so.1:_ZN24MetricsDiscoveryInternal25CDriverInterfaceLinuxPerf17SendGetParamIoctlEijP28GTDIDeviceInfoParamOutStruct
libmd.so.1:_ZN24MetricsDiscoveryInternal25CDriverInterfaceLinuxPerf17SendGetParamIoctlEijPi
libmd.so.1:_ZN24MetricsDiscoveryInternal25CDriverInterfaceLinuxPerf17WriteUInt64ToFileEPKcm
libmd.so.1:_ZN24MetricsDiscoveryInternal25CDriverInterfaceLinuxPerf18GetInstrPlatformIdEP19GTDI_PLATFORM_INDEX
libmd.so.1:_ZN24MetricsDiscoveryInternal25CDriverInterfaceLinuxPerf18GetPerfMetricSetIdEPKcPj
libmd.so.1:_ZN24MetricsDiscoveryInternal25CDriverInterfaceLinuxPerf18InitializeIntelDrmEv
libmd.so.1:_ZN24MetricsDiscoveryInternal25CDriverInterfaceLinuxPerf18ReadUInt64FromFileEPKcPm
libmd.so.1:_ZN24MetricsDiscoveryInternal25CDriverInterfaceLinuxPerf18SendReadRegsConfigEPPN16MetricsDiscovery9SRegisterEjj
libmd.so.1:_ZN24MetricsDiscoveryInternal25CDriverInterfaceLinuxPerf19GetGpuCpuTimestampsEPmS1_Pj
libmd.so.1:_ZN24MetricsDiscoveryInternal25CDriverInterfaceLinuxPerf19GetGpuFrequencyInfoEPmS1_S1_S1_
libmd.so.1:_ZN24MetricsDiscoveryInternal25CDriverInterfaceLinuxPerf19IsOverrideAvailableENS_13EOverrideTypeE
libmd.so.1:_ZN24MetricsDiscoveryInternal25CDriverInterfaceLinuxPerf19LockConcurrentGroupEPKcPPv
libmd.so.1:_ZN24MetricsDiscoveryInternal25CDriverInterfaceLinuxPerf19PerfMetricSetExistsEPKc
libmd.so.1:_ZN24MetricsDiscoveryInternal25CDriverInterfaceLinuxPerf20CalculateEnabledBitsEjj
libmd.so.1:_ZN24MetricsDiscoveryInternal25CDriverInterfaceLinuxPerf20DeinitializeIntelDrmEv
libmd.so.1:_ZN24MetricsDiscoveryInternal25CDriverInterfaceLinuxPerf20GetGpuTimestampTicksEPm
libmd.so.1:_ZN24MetricsDiscoveryInternal25CDriverInterfaceLinuxPerf20GetNeedSupportEnableEv
libmd.so.1:_ZN24MetricsDiscoveryInternal25CDriverInterfaceLinuxPerf20MapMesaToInstrGtTypeEi
libmd.so.1:_ZN24MetricsDiscoveryInternal25CDriverInterfaceLinuxPerf20SetFrequencyOverrideEPKN16MetricsDiscovery31SSetFrequencyOverrideParams_1_2E
libmd.so.1:_ZN24MetricsDiscoveryInternal25CDriverInterfaceLinuxPerf20ValidatePmRegsConfigEPN16MetricsDiscovery9SRegisterEjNS1_13EPlatformTypeE
libmd.so.1:_ZN24MetricsDiscoveryInternal25CDriverInterfaceLinuxPerf21RemovePerfConfigQueryEv
libmd.so.1:_ZN24MetricsDiscoveryInternal25CDriverInterfaceLinuxPerf21UnlockConcurrentGroupEPKcPPv
libmd.so.1:_ZN24MetricsDiscoveryInternal25CDriverInterfaceLinuxPerf22GetPmRegsConfigHandlesEjPjS1_S1_
libmd.so.1:_ZN24MetricsDiscoveryInternal25CDriverInterfaceLinuxPerf22GetTimerPeriodExponentEj
libmd.so.1:_ZN24MetricsDiscoveryInternal25CDriverInterfaceLinuxPerf22MapMesaToInstrPlatformEPK15gen_device_infoP19GTDI_PLATFORM_INDEX
libmd.so.1:_ZN24MetricsDiscoveryInternal25CDriverInterfaceLinuxPerf22SendGetCtxIdTagsEscapeEPNS_19SGetCtxIdTagsParamsE
libmd.so.1:_ZN24MetricsDiscoveryInternal25CDriverInterfaceLinuxPerf22WaitForIoStreamReportsENS_11EStreamTypeEjPv
libmd.so.1:_ZN24MetricsDiscoveryInternal25CDriverInterfaceLinuxPerf23GetGpuTimestampPeriodNsEPm
libmd.so.1:_ZN24MetricsDiscoveryInternal25CDriverInterfaceLinuxPerf23SendSupportEnableEscapeEb
libmd.so.1:_ZN24MetricsDiscoveryInternal25CDriverInterfaceLinuxPerf24GetGpuTimestampFrequencyEPm
libmd.so.1:_ZN24MetricsDiscoveryInternal25CDriverInterfaceLinuxPerf24GetGtMaxSubslicePerSliceEv
libmd.so.1:_ZN24MetricsDiscoveryInternal25CDriverInterfaceLinuxPerf24WaitForPerfStreamReportsEj
libmd.so.1:_ZN24MetricsDiscoveryInternal25CDriverInterfaceLinuxPerf25SendDeviceInfoParamEscapeE22GTDI_DEVICE_PARAM_ENUMP28GTDIDeviceInfoParamOutStruct
libmd.so.1:_ZN24MetricsDiscoveryInternal25CDriverInterfaceLinuxPerf28IsIoMeasurementInfoAvailableENS_22EIoMeasurementInfoTypeE
libmd.so.1:_ZN24MetricsDiscoveryInternal25CDriverInterfaceLinuxPerf28SetFreqChangeReportsOverrideEb
libmd.so.1:_ZN24MetricsDiscoveryInternal25CDriverInterfaceLinuxPerf9SendIoctlEijPv
libmd.so.1:_ZN24MetricsDiscoveryInternal25CDriverInterfaceLinuxPerfC1Ev
libmd.so.1:_ZN24MetricsDiscoveryInternal25CDriverInterfaceLinuxPerfC2Ev
libmd.so.1:_ZN24MetricsDiscoveryInternal25CDriverInterfaceLinuxPerfD0Ev
libmd.so.1:_ZN24MetricsDiscoveryInternal25CDriverInterfaceLinuxPerfD1Ev
libmd.so.1:_ZN24MetricsDiscoveryInternal25CDriverInterfaceLinuxPerfD2Ev
libmd.so.1:_ZN24MetricsDiscoveryInternal25ReadCStringFromFileBufferEPPh
libmd.so.1:_ZN24MetricsDiscoveryInternal25ReleaseOpenCloseSemaphoreEPPv
libmd.so.1:_ZN24MetricsDiscoveryInternal26CMetricsCalculationManagerILN16MetricsDiscovery16EMeasurementTypeE1EE12ResetContextERNS_19SCalculationContextE
libmd.so.1:_ZN24MetricsDiscoveryInternal26CMetricsCalculationManagerILN16MetricsDiscovery16EMeasurementTypeE1EE14PrepareContextERNS_19SCalculationContextE
libmd.so.1:_ZN24MetricsDiscoveryInternal26CMetricsCalculationManagerILN16MetricsDiscovery16EMeasurementTypeE1EE19CalculateNextReportERNS_19SCalculationContextE
libmd.so.1:_ZN24MetricsDiscoveryInternal26CMetricsCalculationManagerILN16MetricsDiscovery16EMeasurementTypeE1EE19GetInformationIndexEPKcPNS1_14IMetricSet_1_1E
libmd.so.1:_ZN24MetricsDiscoveryInternal26CMetricsCalculationManagerILN16MetricsDiscovery16EMeasurementTypeE1EE22FindIoReportOfInterestEPNS_25SStreamCalculationContextEb
libmd.so.1:_ZN24MetricsDiscoveryInternal26CMetricsCalculationManagerILN16MetricsDiscovery16EMeasurementTypeE4EE12ResetContextERNS_19SCalculationContextE
libmd.so.1:_ZN24MetricsDiscoveryInternal26CMetricsCalculationManagerILN16MetricsDiscovery16EMeasurementTypeE4EE14PrepareContextERNS_19SCalculationContextE
libmd.so.1:_ZN24MetricsDiscoveryInternal26CMetricsCalculationManagerILN16MetricsDiscovery16EMeasurementTypeE4EE19CalculateNextReportERNS_19SCalculationContextE
libmd.so.1:_ZN24MetricsDiscoveryInternal26ReadEquationStringFromFileEPPh
libmd.so.1:_ZN24MetricsDiscoveryInternal29ReadTTypedValueFromFileBufferEPPh
libmd.so.1:_ZN24MetricsDiscoveryInternal7CMetric13GetSignalNameEv
libmd.so.1:_ZN24MetricsDiscoveryInternal7CMetric14GetMetricValueEPKc
libmd.so.1:_ZN24MetricsDiscoveryInternal7CMetric18WriteCMetricToFileEP8_IO_FILE
libmd.so.1:_ZN24MetricsDiscoveryInternal7CMetric19SetMaxValueEquationEPKc
libmd.so.1:_ZN24MetricsDiscoveryInternal7CMetric23SetAvailabilityEquationEPKc
libmd.so.1:_ZN24MetricsDiscoveryInternal7CMetric24SetNormalizationEquationEPKc
libmd.so.1:_ZN24MetricsDiscoveryInternal7CMetric26SetDeltaReportReadEquationEPKc
libmd.so.1:_ZN24MetricsDiscoveryInternal7CMetric29SetSnapshotReportReadEquationEPKc
libmd.so.1:_ZN24MetricsDiscoveryInternal7CMetric30SetSnapshotReportDeltaFunctionEN16MetricsDiscovery18SDeltaFunction_1_0E
libmd.so.1:_ZN24MetricsDiscoveryInternal7CMetric30SetSnapshotReportDeltaFunctionEPKc
libmd.so.1:_ZN24MetricsDiscoveryInternal7CMetric9GetParamsEv
libmd.so.1:_ZN24MetricsDiscoveryInternal7CMetricC1EPNS_14CMetricsDeviceEjPKcS4_S4_S4_jjjN16MetricsDiscovery11EMetricTypeENS5_17EMetricResultTypeES4_llNS5_11EHwUnitTypeES4_S4_
libmd.so.1:_ZN24MetricsDiscoveryInternal7CMetricC1ERKS0_
libmd.so.1:_ZN24MetricsDiscoveryInternal7CMetricC2EPNS_14CMetricsDeviceEjPKcS4_S4_S4_jjjN16MetricsDiscovery11EMetricTypeENS5_17EMetricResultTypeES4_llNS5_11EHwUnitTypeES4_S4_
libmd.so.1:_ZN24MetricsDiscoveryInternal7CMetricC2ERKS0_
libmd.so.1:_ZN24MetricsDiscoveryInternal7CMetricD0Ev
libmd.so.1:_ZN24MetricsDiscoveryInternal7CMetricD1Ev
libmd.so.1:_ZN24MetricsDiscoveryInternal7CMetricD2Ev
libmd.so.1:_ZN24MetricsDiscoveryInternal9CEquation18AddEquationElementEPNS_24CEquationElementInternalE
libmd.so.1:_ZN24MetricsDiscoveryInternal9CEquation18GetEquationElementEj
libmd.so.1:_ZN24MetricsDiscoveryInternal9CEquation19ParseEquationStringEPKc
libmd.so.1:_ZN24MetricsDiscoveryInternal9CEquation20ParseEquationElementEPKc
libmd.so.1:_ZN24MetricsDiscoveryInternal9CEquation20SolveBooleanEquationEv
libmd.so.1:_ZN24MetricsDiscoveryInternal9CEquation20WriteCEquationToFileEP8_IO_FILE
libmd.so.1:_ZN24MetricsDiscoveryInternal9CEquation24GetEquationElementsCountEv
libmd.so.1:_ZN24MetricsDiscoveryInternal9CEquationC1EPNS_14CMetricsDeviceE
libmd.so.1:_ZN24MetricsDiscoveryInternal9CEquationC1ERKS0_
libmd.so.1:_ZN24MetricsDiscoveryInternal9CEquationC2EPNS_14CMetricsDeviceE
libmd.so.1:_ZN24MetricsDiscoveryInternal9CEquationC2ERKS0_
libmd.so.1:_ZN24MetricsDiscoveryInternal9CEquationD0Ev
libmd.so.1:_ZN24MetricsDiscoveryInternal9CEquationD1Ev
libmd.so.1:_ZN24MetricsDiscoveryInternal9CEquationD2Ev
libmd.so.1:_ZN24MetricsDiscoveryInternal9COverrideILNS_13EOverrideTypeE0EE11SetOverrideEPN16MetricsDiscovery22SSetOverrideParams_1_2Ej
libmd.so.1:_ZN24MetricsDiscoveryInternal9COverrideILNS_13EOverrideTypeE0EEC1EPNS_14CMetricsDeviceE
libmd.so.1:_ZN24MetricsDiscoveryInternal9COverrideILNS_13EOverrideTypeE0EEC2EPNS_14CMetricsDeviceE
libmd.so.1:_ZN24MetricsDiscoveryInternal9COverrideILNS_13EOverrideTypeE1EEC1EPNS_14CMetricsDeviceE
libmd.so.1:_ZN24MetricsDiscoveryInternal9COverrideILNS_13EOverrideTypeE1EEC2EPNS_14CMetricsDeviceE
libmd.so.1:_ZN24MetricsDiscoveryInternal9COverrideILNS_13EOverrideTypeE2EE11SetOverrideEPN16MetricsDiscovery22SSetOverrideParams_1_2Ej
libmd.so.1:_ZN24MetricsDiscoveryInternal9COverrideILNS_13EOverrideTypeE2EEC1EPNS_14CMetricsDeviceE
libmd.so.1:_ZN24MetricsDiscoveryInternal9COverrideILNS_13EOverrideTypeE2EEC2EPNS_14CMetricsDeviceE
libmd.so.1:_ZN24MetricsDiscoveryInternal9COverrideILNS_13EOverrideTypeE3EE11SetOverrideEPN16MetricsDiscovery22SSetOverrideParams_1_2Ej
libmd.so.1:_ZN24MetricsDiscoveryInternal9COverrideILNS_13EOverrideTypeE3EEC1EPNS_14CMetricsDeviceE
libmd.so.1:_ZN24MetricsDiscoveryInternal9COverrideILNS_13EOverrideTypeE3EEC2EPNS_14CMetricsDeviceE
libmd.so.1:_ZN24MetricsDiscoveryInternal9COverrideILNS_13EOverrideTypeE4EEC1EPNS_14CMetricsDeviceE
libmd.so.1:_ZN24MetricsDiscoveryInternal9COverrideILNS_13EOverrideTypeE4EEC2EPNS_14CMetricsDeviceE
libmd.so.1:_ZN24MetricsDiscoveryInternal9COverrideILNS_13EOverrideTypeE5EE11SetOverrideEPN16MetricsDiscovery22SSetOverrideParams_1_2Ej
libmd.so.1:_ZN24MetricsDiscoveryInternal9COverrideILNS_13EOverrideTypeE5EEC1EPNS_14CMetricsDeviceE
libmd.so.1:_ZN24MetricsDiscoveryInternal9COverrideILNS_13EOverrideTypeE5EEC2EPNS_14CMetricsDeviceE
libmd.so.1:__IuLogPrint
libmd.so.1:gen_get_device_info
libmd.so.1:gen_get_device_name
libmd.so.1:iu_fopen_s
libmd.so.1:iu_fread_s
libmd.so.1:iu_memcpy_s
libmd.so.1:iu_snprintf
libmd.so.1:iu_sprintf_s
libmd.so.1:iu_strcat_s
libmd.so.1:iu_strcpy_s
libmd.so.1:iu_strlen
libmd.so.1:iu_strncpy_s
libmd.so.1:iu_strtok_s
libmd.so.1:iu_vsnprintf
